target datalayout = "e-m:e-p270:32:32-p271:32:32-p272:64:64-i64:64-i128:128-f80:128-n8:16:32:64-S128"
target triple = "x86_64-pc-linux-gnu"

%struct._lv_event_t = type { ptr, ptr, i32, ptr, ptr, ptr, i8 }

; Function Attrs: nounwind uwtable
define ptr @lv_event_get_indev(ptr noundef %0) #0 {
  %2 = alloca ptr, align 8
  %3 = alloca ptr, align 8
  store ptr %0, ptr %3, align 8, !tbaa !3
  %4 = load ptr, ptr %3, align 8, !tbaa !3
  %5 = getelementptr inbounds nuw %struct._lv_event_t, ptr %4, i32 0, i32 2
  %6 = load i32, ptr %5, align 8, !tbaa !12
  %7 = icmp eq i32 %6, 1
  br i1 %7, label %93, label %8

8:                                                ; preds = %1
  %9 = load ptr, ptr %3, align 8, !tbaa !3
  %10 = getelementptr inbounds nuw %struct._lv_event_t, ptr %9, i32 0, i32 2
  %11 = load i32, ptr %10, align 8, !tbaa !12
  %12 = icmp eq i32 %11, 2
  br i1 %12, label %93, label %13

13:                                               ; preds = %8
  %14 = load ptr, ptr %3, align 8, !tbaa !3
  %15 = getelementptr inbounds nuw %struct._lv_event_t, ptr %14, i32 0, i32 2
  %16 = load i32, ptr %15, align 8, !tbaa !12
  %17 = icmp eq i32 %16, 3
  br i1 %17, label %93, label %18

18:                                               ; preds = %13
  %19 = load ptr, ptr %3, align 8, !tbaa !3
  %20 = getelementptr inbounds nuw %struct._lv_event_t, ptr %19, i32 0, i32 2
  %21 = load i32, ptr %20, align 8, !tbaa !12
  %22 = icmp eq i32 %21, 4
  br i1 %22, label %93, label %23

23:                                               ; preds = %18
  %24 = load ptr, ptr %3, align 8, !tbaa !3
  %25 = getelementptr inbounds nuw %struct._lv_event_t, ptr %24, i32 0, i32 2
  %26 = load i32, ptr %25, align 8, !tbaa !12
  %27 = icmp eq i32 %26, 8
  br i1 %27, label %93, label %28

28:                                               ; preds = %23
  %29 = load ptr, ptr %3, align 8, !tbaa !3
  %30 = getelementptr inbounds nuw %struct._lv_event_t, ptr %29, i32 0, i32 2
  %31 = load i32, ptr %30, align 8, !tbaa !12
  %32 = icmp eq i32 %31, 9
  br i1 %32, label %93, label %33

33:                                               ; preds = %28
  %34 = load ptr, ptr %3, align 8, !tbaa !3
  %35 = getelementptr inbounds nuw %struct._lv_event_t, ptr %34, i32 0, i32 2
  %36 = load i32, ptr %35, align 8, !tbaa !12
  %37 = icmp eq i32 %36, 10
  br i1 %37, label %93, label %38

38:                                               ; preds = %33
  %39 = load ptr, ptr %3, align 8, !tbaa !3
  %40 = getelementptr inbounds nuw %struct._lv_event_t, ptr %39, i32 0, i32 2
  %41 = load i32, ptr %40, align 8, !tbaa !12
  %42 = icmp eq i32 %41, 11
  br i1 %42, label %93, label %43

43:                                               ; preds = %38
  %44 = load ptr, ptr %3, align 8, !tbaa !3
  %45 = getelementptr inbounds nuw %struct._lv_event_t, ptr %44, i32 0, i32 2
  %46 = load i32, ptr %45, align 8, !tbaa !12
  %47 = icmp eq i32 %46, 12
  br i1 %47, label %93, label %48

48:                                               ; preds = %43
  %49 = load ptr, ptr %3, align 8, !tbaa !3
  %50 = getelementptr inbounds nuw %struct._lv_event_t, ptr %49, i32 0, i32 2
  %51 = load i32, ptr %50, align 8, !tbaa !12
  %52 = icmp eq i32 %51, 14
  br i1 %52, label %93, label %53

53:                                               ; preds = %48
  %54 = load ptr, ptr %3, align 8, !tbaa !3
  %55 = getelementptr inbounds nuw %struct._lv_event_t, ptr %54, i32 0, i32 2
  %56 = load i32, ptr %55, align 8, !tbaa !12
  %57 = icmp eq i32 %56, 15
  br i1 %57, label %93, label %58

58:                                               ; preds = %53
  %59 = load ptr, ptr %3, align 8, !tbaa !3
  %60 = getelementptr inbounds nuw %struct._lv_event_t, ptr %59, i32 0, i32 2
  %61 = load i32, ptr %60, align 8, !tbaa !12
  %62 = icmp eq i32 %61, 16
  br i1 %62, label %93, label %63

63:                                               ; preds = %58
  %64 = load ptr, ptr %3, align 8, !tbaa !3
  %65 = getelementptr inbounds nuw %struct._lv_event_t, ptr %64, i32 0, i32 2
  %66 = load i32, ptr %65, align 8, !tbaa !12
  %67 = icmp eq i32 %66, 17
  br i1 %67, label %93, label %68

68:                                               ; preds = %63
  %69 = load ptr, ptr %3, align 8, !tbaa !3
  %70 = getelementptr inbounds nuw %struct._lv_event_t, ptr %69, i32 0, i32 2
  %71 = load i32, ptr %70, align 8, !tbaa !12
  %72 = icmp eq i32 %71, 19
  br i1 %72, label %93, label %73

73:                                               ; preds = %68
  %74 = load ptr, ptr %3, align 8, !tbaa !3
  %75 = getelementptr inbounds nuw %struct._lv_event_t, ptr %74, i32 0, i32 2
  %76 = load i32, ptr %75, align 8, !tbaa !12
  %77 = icmp eq i32 %76, 20
  br i1 %77, label %93, label %78

78:                                               ; preds = %73
  %79 = load ptr, ptr %3, align 8, !tbaa !3
  %80 = getelementptr inbounds nuw %struct._lv_event_t, ptr %79, i32 0, i32 2
  %81 = load i32, ptr %80, align 8, !tbaa !12
  %82 = icmp eq i32 %81, 21
  br i1 %82, label %93, label %83

83:                                               ; preds = %78
  %84 = load ptr, ptr %3, align 8, !tbaa !3
  %85 = getelementptr inbounds nuw %struct._lv_event_t, ptr %84, i32 0, i32 2
  %86 = load i32, ptr %85, align 8, !tbaa !12
  %87 = icmp eq i32 %86, 24
  br i1 %87, label %93, label %88

88:                                               ; preds = %83
  %89 = load ptr, ptr %3, align 8, !tbaa !3
  %90 = getelementptr inbounds nuw %struct._lv_event_t, ptr %89, i32 0, i32 2
  %91 = load i32, ptr %90, align 8, !tbaa !12
  %92 = icmp eq i32 %91, 25
  br i1 %92, label %93, label %96

93:                                               ; preds = %88, %83, %78, %73, %68, %63, %58, %53, %48, %43, %38, %33, %28, %23, %18, %13, %8, %1
  %94 = load ptr, ptr %3, align 8, !tbaa !3
  %95 = call ptr @lv_event_get_param(ptr noundef %94)
  store ptr %95, ptr %2, align 8
  br label %99

96:                                               ; preds = %88
  br label %97

97:                                               ; preds = %96
  br label %98

98:                                               ; preds = %97
  store ptr null, ptr %2, align 8
  br label %99

99:                                               ; preds = %98, %93
  %100 = load ptr, ptr %2, align 8
  ret ptr %100
}