; Function Attrs: nounwind uwtable
define ptr @lv_event_get_indev(ptr noundef %0) local_unnamed_addr #0 {
  %2 = getelementptr inbounds nuw i8, ptr %0, i64 16
  %3 = load i32, ptr %2, align 8, !tbaa !10
  switch i32 %3, label %6 [
    i32 1, label %4
    i32 2, label %4
    i32 3, label %4
    i32 4, label %4
    i32 8, label %4
    i32 9, label %4
    i32 10, label %4
    i32 11, label %4
    i32 12, label %4
    i32 14, label %4
    i32 15, label %4
    i32 16, label %4
    i32 17, label %4
    i32 19, label %4
    i32 20, label %4
    i32 21, label %4
    i32 24, label %4
    i32 25, label %4
  ]

4:                                                ; preds = %1, %1, %1, %1, %1, %1, %1, %1, %1, %1, %1, %1, %1, %1, %1, %1, %1, %1
  %5 = tail call ptr @lv_event_get_param(ptr noundef nonnull %0) #4
  br label %6

6:                                                ; preds = %1, %4
  %.0 = phi ptr [ %5, %4 ], [ null, %1 ]
  ret ptr %.0
}